target datalayout = "e-m:e-p270:32:32-p271:32:32-p272:64:64-i64:64-i128:128-f80:128-n8:16:32:64-S128"
target triple = "x86_64-pc-linux-gnu"

%"class.testing::internal::linked_ptr_internal" = type { ptr }
%"class.testing::internal::ParamGenerator.77" = type { %"class.testing::internal::linked_ptr.78" }
%"class.testing::internal::linked_ptr.78" = type { ptr, %"class.testing::internal::linked_ptr_internal" }
%"class.testing::internal::ParamGenerator.89" = type { %"class.testing::internal::linked_ptr.90" }
%"class.testing::internal::linked_ptr.90" = type { ptr, %"class.testing::internal::linked_ptr_internal" }
%"class.testing::internal::ParamIterator" = type { %"class.testing::internal::scoped_ptr.114" }
%"class.testing::internal::scoped_ptr.114" = type { ptr }
%"class.testing::internal::ParamIterator.117" = type { %"class.testing::internal::scoped_ptr.118" }
%"class.testing::internal::scoped_ptr.118" = type { ptr }
%"class.testing::internal::CartesianProductGenerator2" = type { %"class.testing::internal::ParamGeneratorInterface.127", %"class.testing::internal::ParamGenerator.89", %"class.testing::internal::ParamGenerator.77" }
%"class.testing::internal::ParamGeneratorInterface.127" = type { ptr }

; Function Attrs: mustprogress nounwind uwtable
define linkonce_odr hidden void @_ZN7testing8internal10scoped_ptrINS0_22ParamIteratorInterfaceIbEEEC2EPS3_(ptr noundef nonnull align 8 dereferenceable(8) %0, ptr noundef %1) unnamed_addr #9 comdat align 2 {
  %3 = alloca ptr, align 8
  %4 = alloca ptr, align 8
  store ptr %0, ptr %3, align 8, !tbaa !495
  store ptr %1, ptr %4, align 8, !tbaa !354
  %5 = load ptr, ptr %3, align 8
  %6 = getelementptr inbounds nuw %"class.testing::internal::scoped_ptr.118", ptr %5, i32 0, i32 0
  %7 = load ptr, ptr %4, align 8, !tbaa !354
  store ptr %7, ptr %6, align 8, !tbaa !497
  ret void
}

; Function Attrs: mustprogress nounwind uwtable
define internal void @_ZN7testing8internal10scoped_ptrINS0_22ParamIteratorInterfaceIN11opencv_test12_GLOBAL__N_18NormTypeEEEEC2EPS6_(ptr noundef nonnull align 8 dereferenceable(8) %0, ptr noundef %1) unnamed_addr #9 align 2 {
  %3 = alloca ptr, align 8
  %4 = alloca ptr, align 8
  store ptr %0, ptr %3, align 8, !tbaa !489
  store ptr %1, ptr %4, align 8, !tbaa !419
  %5 = load ptr, ptr %3, align 8
  %6 = getelementptr inbounds nuw %"class.testing::internal::scoped_ptr.114", ptr %5, i32 0, i32 0
  %7 = load ptr, ptr %4, align 8, !tbaa !419
  store ptr %7, ptr %6, align 8, !tbaa !491
  ret void
}

; Function Attrs: mustprogress uwtable
define linkonce_odr hidden void @_ZN7testing8internal13ParamIteratorIbEC2EPNS0_22ParamIteratorInterfaceIbEE(ptr noundef nonnull align 8 dereferenceable(8) %0, ptr noundef %1) unnamed_addr #6 comdat align 2 {
  %3 = alloca ptr, align 8
  %4 = alloca ptr, align 8
  store ptr %0, ptr %3, align 8, !tbaa !477
  store ptr %1, ptr %4, align 8, !tbaa !354
  %5 = load ptr, ptr %3, align 8
  %6 = getelementptr inbounds nuw %"class.testing::internal::ParamIterator.117", ptr %5, i32 0, i32 0
  %7 = load ptr, ptr %4, align 8, !tbaa !354
  call void @_ZN7testing8internal10scoped_ptrINS0_22ParamIteratorInterfaceIbEEEC2EPS3_(ptr noundef nonnull align 8 dereferenceable(8) %6, ptr noundef %7)
  ret void
}

; Function Attrs: mustprogress nounwind uwtable
define linkonce_odr hidden noundef ptr @_ZNK7testing8internal10linked_ptrIKNS0_23ParamGeneratorInterfaceIbEEEptEv(ptr noundef nonnull align 8 dereferenceable(16) %0) #9 comdat align 2 {
  %2 = alloca ptr, align 8
  store ptr %0, ptr %2, align 8, !tbaa !296
  %3 = load ptr, ptr %2, align 8
  %4 = getelementptr inbounds nuw %"class.testing::internal::linked_ptr.78", ptr %3, i32 0, i32 0
  %5 = load ptr, ptr %4, align 8, !tbaa !298
  ret ptr %5
}

; Function Attrs: mustprogress uwtable
define internal void @_ZN7testing8internal13ParamIteratorIN11opencv_test12_GLOBAL__N_18NormTypeEEC2EPNS0_22ParamIteratorInterfaceIS4_EE(ptr noundef nonnull align 8 dereferenceable(8) %0, ptr noundef %1) unnamed_addr #6 align 2 {
  %3 = alloca ptr, align 8
  %4 = alloca ptr, align 8
  store ptr %0, ptr %3, align 8, !tbaa !473
  store ptr %1, ptr %4, align 8, !tbaa !419
  %5 = load ptr, ptr %3, align 8
  %6 = getelementptr inbounds nuw %"class.testing::internal::ParamIterator", ptr %5, i32 0, i32 0
  %7 = load ptr, ptr %4, align 8, !tbaa !419
  call void @_ZN7testing8internal10scoped_ptrINS0_22ParamIteratorInterfaceIN11opencv_test12_GLOBAL__N_18NormTypeEEEEC2EPS6_(ptr noundef nonnull align 8 dereferenceable(8) %6, ptr noundef %7)
  ret void
}

; Function Attrs: mustprogress nounwind uwtable
define internal noundef ptr @_ZNK7testing8internal10linked_ptrIKNS0_23ParamGeneratorInterfaceIN11opencv_test12_GLOBAL__N_18NormTypeEEEEptEv(ptr noundef nonnull align 8 dereferenceable(16) %0) #9 align 2 {
  %2 = alloca ptr, align 8
  store ptr %0, ptr %2, align 8, !tbaa !424
  %3 = load ptr, ptr %2, align 8
  %4 = getelementptr inbounds nuw %"class.testing::internal::linked_ptr.90", ptr %3, i32 0, i32 0
  %5 = load ptr, ptr %4, align 8, !tbaa !426
  ret ptr %5
}

; Function Attrs: mustprogress uwtable
define linkonce_odr hidden void @_ZNK7testing8internal14ParamGeneratorIbE5beginEv(ptr dead_on_unwind noalias writable sret(%"class.testing::internal::ParamIterator.117") align 8 %0, ptr noundef nonnull align 8 dereferenceable(16) %1) #6 comdat align 2 {
  %3 = alloca ptr, align 8
  %4 = alloca ptr, align 8
  store ptr %0, ptr %3, align 8
  store ptr %1, ptr %4, align 8, !tbaa !289
  %5 = load ptr, ptr %4, align 8
  %6 = getelementptr inbounds nuw %"class.testing::internal::ParamGenerator.77", ptr %5, i32 0, i32 0
  %7 = call noundef ptr @_ZNK7testing8internal10linked_ptrIKNS0_23ParamGeneratorInterfaceIbEEEptEv(ptr noundef nonnull align 8 dereferenceable(16) %6)
  %8 = load ptr, ptr %7, align 8, !tbaa !20
  %9 = getelementptr inbounds ptr, ptr %8, i64 2
  %10 = load ptr, ptr %9, align 8
  %11 = call noundef ptr %10(ptr noundef nonnull align 8 dereferenceable(8) %7)
  call void @_ZN7testing8internal13ParamIteratorIbEC2EPNS0_22ParamIteratorInterfaceIbEE(ptr noundef nonnull align 8 dereferenceable(8) %0, ptr noundef %11)
  ret void
}

; Function Attrs: mustprogress uwtable
define internal void @_ZNK7testing8internal14ParamGeneratorIN11opencv_test12_GLOBAL__N_18NormTypeEE5beginEv(ptr dead_on_unwind noalias writable sret(%"class.testing::internal::ParamIterator") align 8 %0, ptr noundef nonnull align 8 dereferenceable(16) %1) #6 align 2 {
  %3 = alloca ptr, align 8
  %4 = alloca ptr, align 8
  store ptr %0, ptr %3, align 8
  store ptr %1, ptr %4, align 8, !tbaa !377
  %5 = load ptr, ptr %4, align 8
  %6 = getelementptr inbounds nuw %"class.testing::internal::ParamGenerator.89", ptr %5, i32 0, i32 0
  %7 = call noundef ptr @_ZNK7testing8internal10linked_ptrIKNS0_23ParamGeneratorInterfaceIN11opencv_test12_GLOBAL__N_18NormTypeEEEEptEv(ptr noundef nonnull align 8 dereferenceable(16) %6)
  %8 = load ptr, ptr %7, align 8, !tbaa !20
  %9 = getelementptr inbounds ptr, ptr %8, i64 2
  %10 = load ptr, ptr %9, align 8
  %11 = call noundef ptr %10(ptr noundef nonnull align 8 dereferenceable(8) %7)
  call void @_ZN7testing8internal13ParamIteratorIN11opencv_test12_GLOBAL__N_18NormTypeEEC2EPNS0_22ParamIteratorInterfaceIS4_EE(ptr noundef nonnull align 8 dereferenceable(8) %0, ptr noundef %11)
  ret void
}

; Function Attrs: mustprogress uwtable
define internal noundef ptr @_ZNK7testing8internal26CartesianProductGenerator2IN11opencv_test12_GLOBAL__N_18NormTypeEbE5BeginEv(ptr noundef nonnull align 8 dereferenceable(40) %0) unnamed_addr #6 align 2 personality ptr @__gxx_personality_v0 {
  %2 = alloca ptr, align 8
  %3 = alloca %"class.testing::internal::ParamIterator", align 8
  %4 = alloca ptr, align 8
  %5 = alloca i32, align 4
  %6 = alloca %"class.testing::internal::ParamIterator.117", align 8
  %7 = alloca i1, align 1
  store ptr %0, ptr %2, align 8, !tbaa !570
  %8 = load ptr, ptr %2, align 8
  %9 = call noalias noundef nonnull ptr @_Znwm(i64 noundef 80) #25
  store i1 true, ptr %7, align 1
  %10 = getelementptr inbounds nuw %"class.testing::internal::CartesianProductGenerator2", ptr %8, i32 0, i32 1
  call void @llvm.lifetime.start.p0(i64 8, ptr %3) #3
  %11 = getelementptr inbounds nuw %"class.testing::internal::CartesianProductGenerator2", ptr %8, i32 0, i32 1
  invoke void @_ZNK7testing8internal14ParamGeneratorIN11opencv_test12_GLOBAL__N_18NormTypeEE5beginEv(ptr dead_on_unwind writable sret(%"class.testing::internal::ParamIterator") align 8 %3, ptr noundef nonnull align 8 dereferenceable(16) %11)
          to label %12 unwind label %17

12:                                               ; preds = %1
  %13 = getelementptr inbounds nuw %"class.testing::internal::CartesianProductGenerator2", ptr %8, i32 0, i32 2
  call void @llvm.lifetime.start.p0(i64 8, ptr %6) #3
  %14 = getelementptr inbounds nuw %"class.testing::internal::CartesianProductGenerator2", ptr %8, i32 0, i32 2
  invoke void @_ZNK7testing8internal14ParamGeneratorIbE5beginEv(ptr dead_on_unwind writable sret(%"class.testing::internal::ParamIterator.117") align 8 %6, ptr noundef nonnull align 8 dereferenceable(16) %14)
          to label %15 unwind label %21

15:                                               ; preds = %12
  invoke void @_ZN7testing8internal26CartesianProductGenerator2IN11opencv_test12_GLOBAL__N_18NormTypeEbE8IteratorC2EPKNS0_23ParamGeneratorInterfaceISt5tupleIJS4_bEEEERKNS0_14ParamGeneratorIS4_EERKNS0_13ParamIteratorIS4_EERKNSD_IbEERKNSH_IbEE(ptr noundef nonnull align 8 dereferenceable(80) %9, ptr noundef %8, ptr noundef nonnull align 8 dereferenceable(16) %10, ptr noundef nonnull align 8 dereferenceable(8) %3, ptr noundef nonnull align 8 dereferenceable(16) %13, ptr noundef nonnull align 8 dereferenceable(8) %6)
          to label %16 unwind label %25

16:                                               ; preds = %15
  store i1 false, ptr %7, align 1
  call void @_ZN7testing8internal13ParamIteratorIbED2Ev(ptr noundef nonnull align 8 dereferenceable(8) %6) #3
  call void @llvm.lifetime.end.p0(i64 8, ptr %6) #3
  call void @_ZN7testing8internal13ParamIteratorIN11opencv_test12_GLOBAL__N_18NormTypeEED2Ev(ptr noundef nonnull align 8 dereferenceable(8) %3) #3
  call void @llvm.lifetime.end.p0(i64 8, ptr %3) #3
  ret ptr %9

17:                                               ; preds = %1
  %18 = landingpad { ptr, i32 }
          cleanup
  %19 = extractvalue { ptr, i32 } %18, 0
  store ptr %19, ptr %4, align 8
  %20 = extractvalue { ptr, i32 } %18, 1
  store i32 %20, ptr %5, align 4
  br label %30

21:                                               ; preds = %12
  %22 = landingpad { ptr, i32 }
          cleanup
  %23 = extractvalue { ptr, i32 } %22, 0
  store ptr %23, ptr %4, align 8
  %24 = extractvalue { ptr, i32 } %22, 1
  store i32 %24, ptr %5, align 4
  br label %29

25:                                               ; preds = %15
  %26 = landingpad { ptr, i32 }
          cleanup
  %27 = extractvalue { ptr, i32 } %26, 0
  store ptr %27, ptr %4, align 8
  %28 = extractvalue { ptr, i32 } %26, 1
  store i32 %28, ptr %5, align 4
  call void @_ZN7testing8internal13ParamIteratorIbED2Ev(ptr noundef nonnull align 8 dereferenceable(8) %6) #3
  br label %29

29:                                               ; preds = %25, %21
  call void @llvm.lifetime.end.p0(i64 8, ptr %6) #3
  call void @_ZN7testing8internal13ParamIteratorIN11opencv_test12_GLOBAL__N_18NormTypeEED2Ev(ptr noundef nonnull align 8 dereferenceable(8) %3) #3
  br label %30

30:                                               ; preds = %29, %17
  call void @llvm.lifetime.end.p0(i64 8, ptr %3) #3
  %31 = load i1, ptr %7, align 1
  br i1 %31, label %32, label %33

32:                                               ; preds = %30
  call void @_ZdlPv(ptr noundef %9) #26
  br label %33

33:                                               ; preds = %32, %30
  br label %34

34:                                               ; preds = %33
  %35 = load ptr, ptr %4, align 8
  %36 = load i32, ptr %5, align 4
  %37 = insertvalue { ptr, i32 } poison, ptr %35, 0
  %38 = insertvalue { ptr, i32 } %37, i32 %36, 1
  resume { ptr, i32 } %38
}